(lp0
(dp1
S'DATE'
p2
(lp3
csqlalchemy.sql.elements
quoted_name
p4
(Vdob
p5
Ntp6
Rp7
asS'INTEGER'
p8
(lp9
sS'ENUM'
p10
(lp11
g4
(Vbirthplace
p12
Ntp13
Rp14
asS'STRING'
p15
(lp16
g4
(Vactor_name
p17
Ntp18
Rp19
aS'birthplace'
p20
asS'FLOAT'
p21
(lp22
g4
(Vheight
p23
Ntp24
Rp25
asa(dp26
(S'actors'
p27
g14
tp28
(lp29
S'usa'
p30
as(g27
g4
(Vgender
p31
Ntp32
Rp33
tp34
(lp35
S'male'
p36
aS'female'
p37
as(g27
g4
(Vaward
p38
Ntp39
Rp40
tp41
(lp42
S'oscar'
p43
aS'golden globe'
p44
aS'bafta'
p45
asa(dp46
(g27
g14
tp47
(lp48
Vbirthplace
p49
aVplace
p50
aVlocation
p51
aVbirth
p52
aVborn
p53
as(g27
g19
tp54
(lp55
Vactor
p56
aVname
p57
aVact
p58
as(g27
g33
tp59
(lp60
Vgender
p61
aVmale
p62
aVfemale
p63
as(g27
g7
tp64
(lp65
Vdate
p66
aVbirth
p67
aVborn
p68
as(g27
g25
tp69
(lp70
Vheight
p71
aVtall
p72
aVshort
p73
aVfoot
p74
as(g27
g40
tp75
(lp76
Vaward
p77
aVoscar
p78
asa(lp79
S'blah'
p80
aa.