(lp0
(dp1
S'DATE'
p2
(lp3
csqlalchemy.sql.elements
quoted_name
p4
(Vtime
p5
Ntp6
Rp7
asS'INTEGER'
p8
(lp9
g4
(Vcount
p10
Ntp11
Rp12
asS'ENUM'
p13
(lp14
g4
(Vbrowser
p15
Ntp16
Rp17
ag4
(Vcity
p18
Ntp19
Rp20
ag4
(Vdevice
p21
Ntp22
Rp23
ag4
(Vdomain_name
p24
Ntp25
Rp26
ag4
(Vregion
p27
Ntp28
Rp29
asS'STRING'
p30
(lp31
g17
ag20
ag23
ag26
ag29
asS'FLOAT'
p32
(lp33
sa(dp34
(S'email'
p35
g4
(Vos
p36
Ntp37
Rp38
tp39
(lp40
S'ios'
p41
aS'os'
p42
aS'x'
p43
aS'windows'
p44
aS'7'
p45
as(g35
g17
tp46
(lp47
S'mobile safari'
p48
aS'outlook 2010'
p49
aS'apple mail'
p50
as(g35
g29
tp51
(lp52
S'louisiana'
p53
aS'--'
p54
aS'california'
p55
aS'nova scotia'
p56
aS'florida'
p57
as(g35
g20
tp58
(lp59
S'shreveport'
p60
aS'--'
p61
aS'mission viejo'
p62
aS'halifax'
p63
aS'sunrise'
p64
as(g35
g26
tp65
(lp66
S'loft.com'
p67
aS'disneystore.com'
p68
as(g35
g23
tp69
(lp70
S'mobile'
p71
aS'pc'
p72
as(g35
g4
(Vevent_type
p73
Ntp74
Rp75
tp76
(lp77
S'open'
p78
aS'click'
p79
asa(dp80
(g35
g38
tp81
(lp82
Vos
p83
aVoperate
p84
aVsystem
p85
as(g35
g17
tp86
(lp87
Vweb
p88
aVbrowser
p89
as(g35
g29
tp90
(lp91
Vstate
p92
aVregion
p93
aVlocation
p94
as(g35
g12
tp95
(lp96
Vcount
p97
aVnumber
p98
as(g35
g20
tp99
(lp100
Vcity
p101
aVlocation
p102
as(g35
g7
tp103
(lp104
Vtime
p105
aVdate
p106
as(g35
g26
tp107
(lp108
Vdomain
p109
aVname
p110
as(g35
g23
tp111
(lp112
Vdevice
p113
aVphone
p114
as(g35
g75
tp115
(lp116
Vevent
p117
aVtype
p118
asa(lp119
S'email'
p120
aS'event'
p121
aa.