(lp0
(dp1
S'DATE'
p2
(lp3
csqlalchemy.sql.elements
quoted_name
p4
(Vfrom_date
p5
Ntp6
Rp7
ag4
(Vto_date
p8
Ntp9
Rp10
ag4
(Vbirth_date
p11
Ntp12
Rp13
ag4
(Vhire_date
p14
Ntp15
Rp16
asS'INTEGER'
p17
(lp18
g4
(Vsalary
p19
Ntp20
Rp21
asS'ENUM'
p22
(lp23
sS'STRING'
p24
(lp25
sS'FLOAT'
p26
(lp27
sa(dp28
(S'employees_info'
p29
g4
(Vgender
p30
Ntp31
Rp32
tp33
(lp34
S'male'
p35
aS'female'
p36
asa(dp37
(g29
g21
tp38
(lp39
S'salary'
p40
as(g29
g10
tp41
(lp42
S'to'
p43
aS'date'
p44
as(g29
g13
tp45
(lp46
S'date'
p47
aS'of'
p48
aS'birth'
p49
as(g29
g7
tp50
(lp51
S'from'
p52
aS'date'
p53
as(g29
g32
tp54
(lp55
S'gender'
p56
aS'male'
p57
as(g29
g16
tp58
(lp59
S'date'
p60
asa(lp61
S'employee'
p62
aS'salary'
p63
aa.