(lp0
(dp1
S'DATE'
p2
(lp3
sS'INTEGER'
p4
(lp5
csqlalchemy.sql.elements
quoted_name
p6
(Vnum_critic_for_reviews
p7
Ntp8
Rp9
ag6
(Vduration
p10
Ntp11
Rp12
ag6
(Vgross
p13
Ntp14
Rp15
ag6
(Vnum_user_for_reviews
p16
Ntp17
Rp18
ag6
(Vbudget
p19
Ntp20
Rp21
ag6
(Vtitle_year
p22
Ntp23
Rp24
asS'ENUM'
p25
(lp26
g6
(Vcolor
p27
Ntp28
Rp29
ag6
(Vgenres
p30
Ntp31
Rp32
ag6
(Vmovie_title
p33
Ntp34
Rp35
ag6
(Vlanguage
p36
Ntp37
Rp38
ag6
(Vcountry
p39
Ntp40
Rp41
ag6
(Vcontent_rating
p42
Ntp43
Rp44
asS'STRING'
p45
(lp46
S'director_name'
p47
aS'actor_1_name'
p48
aS'movie_imdb_link'
p49
asS'FLOAT'
p50
(lp51
g6
(Vimdb_score
p52
Ntp53
Rp54
ag6
(Vaspect_ratio
p55
Ntp56
Rp57
asa(dp58
(S'movies'
p59
g29
tp60
(lp61
S''
p62
aS'color'
p63
aS' black and white'
p64
as(g59
g38
tp65
(lp66
g62
aS'english'
p67
aS'french'
p68
aS'mandarin'
p69
aS'hindi'
p70
aS'japanese'
p71
aS'russian'
p72
aS'filipino'
p73
aS'aboriginal'
p74
aS'spanish'
p75
aS'korean'
p76
as(g59
g41
tp77
(lp78
g62
aS'usa'
p79
aS'germany'
p80
aS'uk'
p81
aS'france'
p82
aS'spain'
p83
aS'hong kong'
p84
aS'australia'
p85
aS'czech republic'
p86
aS'china'
p87
aS'india'
p88
aS'canada'
p89
aS'japan'
p90
aS'south korea'
p91
aS'new zealand'
p92
aS'soviet union'
p93
aS'belgium'
p94
aS'peru'
p95
aS'mexico'
p96
aS'new line'
p97
as(g59
g44
tp98
(lp99
g62
aS'g'
p100
aS'r'
p101
aS'pg-13'
p102
aS'pg'
p103
aS'tv-g'
p104
aS'approved'
p105
aS'tv-14'
p106
aS'tv-ma'
p107
aS'unrated'
p108
aS'tv-pg'
p109
aS'not rated'
p110
as(g59
g35
tp111
(lp112
S'10,000 b.c.\xa0           '
p113
aS'102 dalmatians'
p114
aS'13 hours'
p115
aS'15 minutes'
p116
aS'16 blocks'
p117
aS'2 fast 2 furious'
p118
aS'2 guns'
p119
aS'2012'
p120
aS'21 jump street'
p121
aS'22 jump street'
p122
aS'28 days'
p123
aS'3000 miles to graceland'
p124
aS'300: rise of an empire'
p125
aS'300'
p126
aS'3:10 to yuma'
p127
aS'42'
p128
aS'47 ronin'
p129
aS'50 first dates'
p130
aS'8 mile'
p131
aS'a beautiful mind'
p132
aS'a bugs life'
p133
aS'a christmas carol'
p134
aS'a civil action'
p135
aS'a good day to die hard'
p136
aS'a knights tale'
p137
aS'a league of their own'
p138
aS'a sound of thunder'
p139
aS'a time to kill'
p140
aS'a touch of frost\xa0           '
p141
aS'a very long engagement'
p142
aS'a.i. artificial intelligence'
p143
aS'abraham lincoln: vampire hunter'
p144
aS'absolute power'
p145
aS'across the universe'
p146
aS'after earth'
p147
aS'after the sunset'
p148
aS'agora'
p149
aS'air force one'
p150
aS'alexander'
p151
aS'alice in wonderland'
p152
aS'alice through the looking glass'
p153
aS'alien 3'
p154
aS'alien: resurrection'
p155
aS'aliens in the attic'
p156
aS'ali'
p157
aS'all that jazz'
p158
aS'all the kings men'
p159
aS'all the pretty horses'
p160
aS'allegiant'
p161
aS'almost famous'
p162
aS'along came polly'
p163
aS'alvin and the chipmunks: chipwrecked'
p164
aS'alvin and the chipmunks: the road chip'
p165
aS'alvin and the chipmunks: the squeakquel'
p166
aS'alvin and the chipmunks'
p167
aS'american gangster'
p168
aS'american hustle'
p169
aS'american reunion'
p170
aS'american sniper'
p171
aS'american wedding'
p172
aS'americas sweethearts'
p173
aS'anaconda'
p174
aS'analyze that'
p175
aS'anastasia'
p176
aS'anchorman 2: the legend continues'
p177
aS'angels & demons'
p178
aS'anger management\xa0           '
p179
aS'animal kingdom: lets go ape'
p180
aS'anna and the king'
p181
aS'anna karenina'
p182
aS'annie'
p183
aS'ant-man'
p184
aS'antz'
p185
aS'any given sunday'
p186
aS'apollo 13'
p187
aS'argo'
p188
aS'armageddon'
p189
aS'around the world in 80 days'
p190
aS'arthur and the invisibles'
p191
aS'arthur christmas'
p192
aS'as good as it gets'
p193
aS'assassins'
p194
aS'asterix at the olympic games'
p195
aS'astro boy'
p196
aS'atlantis: the lost empire'
p197
aS'austin powers in goldmember'
p198
aS'australia'
p199
aS'avatar'
p200
aS'avengers: age of ultron'
p201
aS'avp: alien vs. predator'
p202
aS'babe: pig in the city'
p203
aS'babylon a.d.'
p204
aS'babys day out'
p205
aS'back to the future part iii'
p206
aS'back to the future part ii'
p207
aS'bad boys ii'
p208
aS'bad company'
p209
aS'ballistic: ecks vs. sever'
p210
aS'bandits'
p211
aS'bangkok dangerous'
p212
aS'barnyard'
p213
aS'basic instinct 2'
p214
aS'basic'
p215
aS'batman & robin'
p216
aS'batman begins'
p217
aS'batman forever'
p218
aS'batman returns'
p219
aS'batman v superman: dawn of justice'
p220
aS'battle los angeles'
p221
aS'battlefield earth'
p222
aS'battleship'
p223
aS'be cool'
p224
aS'beautiful creatures'
p225
aS'bedazzled'
p226
aS'bedtime stories'
p227
aS'bee movie'
p228
aS'beloved'
p229
aS'ben-hur'
p230
aS'beowulf'
p231
aS'beverly hills cop iii'
p232
aS'bewitched\xa0           '
p233
aS'beyond borders'
p234
aS'bicentennial man'
p235
aS'big fish'
p236
aS'big hero 6'
p237
aS'big trouble'
p238
aS'black hawk down'
p239
aS'black mass'
p240
aS'blackhat'
p241
aS'blade ii'
p242
aS'blade: trinity'
p243
aS'blades of glory'
p244
aS'blade'
p245
aS'blended'
p246
aS'blood diamond'
p247
aS'blood work'
p248
aS'body of lies'
p249
aS'bolt'
p250
aS'boomerang'
p251
aS'bowfinger'
p252
aS'bram stokers dracula'
p253
aS'braveheart'
p254
aS'brave'
p255
aS'bridget jones: the edge of reason'
p256
aS'broken arrow'
p257
aS'bruce almighty'
p258
aS'br\xfcno'
p259
aS'bullet to the head'
p260
aS'bulletproof monk'
p261
aS'burlesque'
p262
aS'captain america: civil war'
p263
aS'captain america: the first avenger'
p264
aS'captain america: the winter soldier'
p265
aS'captain corellis mandolin'
p266
aS'captain phillips'
p267
aS'carriers'
p268
aS'cars 2'
p269
aS'cars'
p270
aS'casino royale'
p271
aS'casino'
p272
aS'casper'
p273
aS'cast away'
p274
aS'catch me if you can'
p275
aS'cats & dogs: the revenge of kitty galore'
p276
aS'cats & dogs'
p277
aS'catwoman'
p278
aS'cellular'
p279
aS'central intelligence'
p280
aS'chain reaction'
p281
aS'changeling'
p282
aS'changing lanes'
p283
aS'chappie'
p284
aS'charlie and the chocolate factory'
p285
aS'charlie st. cloud'
p286
aS'charlie wilsons war'
p287
aS'charlies angels: full throttle'
p288
aS'charlies angels'
p289
aS'charlottes web'
p290
aS'cheaper by the dozen 2'
p291
aS'cheaper by the dozen'
p292
aS'chicken little'
p293
aS'chicken run'
p294
aS'child 44'
p295
aS'children of men'
p296
aS'christmas with the kranks'
p297
aS'cinderella man'
p298
aS'cinderella'
p299
aS'city of angels'
p300
aS'clash of the titans'
p301
aS'clear and present danger'
p302
aS'cleopatra'
p303
aS'click'
p304
aS'cliffhanger'
p305
aS'cloud atlas'
p306
aS'cloudy with a chance of meatballs 2'
p307
aS'cloudy with a chance of meatballs'
p308
aS'coach carter'
p309
aS'cold mountain'
p310
aS'collateral damage'
p311
aS'collateral'
p312
aS'con air'
p313
aS'conan the barbarian'
p314
aS'congo'
p315
aS'conspiracy theory'
p316
aS'constantine\xa0           '
p317
aS'contact'
p318
aS'contagion'
p319
aS'coraline'
p320
aS'couples retreat'
p321
aS'courage under fire'
p322
aS'coyote ugly'
p323
aS'crazy, stupid, love.'
p324
aS'creepshow'
p325
aS'crimson tide'
p326
aS'curious george'
p327
aS'curse of the golden flower'
p328
aS'cutthroat island'
p329
aS'daddy day care'
p330
aS'daddys home'
p331
aS'dantes peak'
p332
aS'daredevil\xa0           '
p333
aS'dark shadows'
p334
aS'dark water'
p335
aS'date night'
p336
aS'dawn of the planet of the apes'
p337
aS'daylight'
p338
aS'days of thunder'
p339
aS'deadpool'
p340
aS'death becomes her'
p341
aS'death race'
p342
aS'death to smoochy'
p343
aS'deck the halls'
p344
aS'deep blue sea'
p345
aS'deep impact'
p346
aS'deep rising'
p347
aS'defiance\xa0           '
p348
aS'd\xe9j\xe0 vu'
p349
aS'despicable me 2'
p350
aS'despicable me'
p351
aS'dick tracy'
p352
aS'did you hear about the morgans?'
p353
aS'die another day'
p354
aS'die hard 2'
p355
aS'die hard with a vengeance'
p356
aS'dinner for schmucks'
p357
aS'dinosaur'
p358
aS'disclosure'
p359
aS'divergent'
p360
aS'django unchained'
p361
aS'doctor dolittle'
p362
aS'domestic disturbance'
p363
aS'domino'
p364
aS'dont say a word'
p365
aS'doom'
p366
aS'double jeopardy'
p367
aS'dr. dolittle 2'
p368
aS'dracula untold'
p369
aS'dragon blade'
p370
aS'dragonfly'
p371
aS'dragonheart'
p372
aS'dream house'
p373
aS'dreamcatcher'
p374
aS'dreamgirls'
p375
aS'dredd'
p376
aS'drive angry'
p377
aS'driven'
p378
aS'due date'
p379
aS'dumb and dumber to'
p380
aS'dune'
p381
aS'duplicity'
p382
aS'eagle eye'
p383
aS'earth'
p384
aS'eastern promises'
p385
aS'eat pray love'
p386
aS'edge of darkness'
p387
aS'edge of tomorrow'
p388
aS'edtv'
p389
aS'eight below'
p390
aS'elektra'
p391
aS'elizabeth: the golden age'
p392
aS'elizabethtown'
p393
aS'elysium'
p394
aS'enchanted'
p395
aS'end of days'
p396
aS'enders game'
p397
aS'enemy at the gates'
p398
aS'enemy of the state'
p399
aS'entrapment'
p400
aS'epic'
p401
aS'eragon'
p402
aS'eraser'
p403
aS'erin brockovich'
p404
aS'escape from l.a.'
p405
aS'escape plan'
p406
aS'evan almighty'
p407
aS'event horizon'
p408
aS'everest'
p409
aS'evita'
p410
aS'evolution'
p411
aS'executive decision'
p412
aS'exodus: gods and kings'
p413
aS'exorcist: the beginning'
p414
aS'eye see you'
p415
aS'eyes wide shut'
p416
aS'face/off'
p417
aS'failure to launch'
p418
aS'fair game'
p419
aS'fantasia 2000'
p420
aS'fantastic 4: rise of the silver surfer'
p421
aS'fantastic four'
p422
aS'fast five'
p423
aS'fat albert'
p424
aS'fifty shades of grey'
p425
aS'fight club'
p426
aS'final fantasy: the spirits within'
p427
aS'finding forrester'
p428
aS'finding nemo'
p429
aS'firewall'
p430
aS'first blood'
p431
aS'first knight'
p432
aS'flags of our fathers'
p433
aS'flight of the phoenix'
p434
aS'flightplan'
p435
aS'flubber'
p436
aS'flushed away'
p437
aS'flyboys'
p438
aS'focus'
p439
aS'foodfight!'
p440
aS'fools gold'
p441
aS'for love of the game'
p442
aS'forrest gump'
p443
aS'four christmases'
p444
aS'free birds'
p445
aS'free state of jones'
p446
aS'from hell'
p447
aS'from paris with love'
p448
aS'frozen'
p449
aS'fun with dick and jane'
p450
aS'funny people'
p451
aS'furious 7'
p452
aS'fury'
p453
aS'g-force'
p454
aS'g.i. jane'
p455
aS'g.i. joe: retaliation'
p456
aS'g.i. joe: the rise of cobra'
p457
aS'galaxy quest'
p458
aS'gamer'
p459
aS'gangs of new york'
p460
aS'gangster squad'
p461
aS'garfield 2'
p462
aS'garfield'
p463
aS'george of the jungle'
p464
aS'get hard'
p465
aS'get smart'
p466
aS'ghost rider: spirit of vengeance'
p467
aS'ghost rider'
p468
aS'ghostbusters'
p469
aS'gigli'
p470
aS'gladiator'
p471
aS'gods and generals'
p472
aS'gods of egypt'
p473
aS'godzilla resurgence'
p474
aS'goldeneye'
p475
aS'gone girl'
p476
aS'gone in sixty seconds'
p477
aS'goosebumps'
p478
aS'gravity'
p479
aS'green lantern'
p480
aS'green zone'
p481
aS'gremlins 2: the new batch'
p482
aS'grindhouse'
p483
aS'grown ups 2'
p484
aS'grown ups'
p485
aS'guardians of the galaxy'
p486
aS'gullivers travels'
p487
aS'hairspray'
p488
aS'hall pass'
p489
aS'hancock'
p490
aS'hannibal rising'
p491
aS'hannibal\xa0           '
p492
aS'hansel & gretel: witch hunters'
p493
aS'happily never after'
p494
aS'happy feet 2'
p495
aS'happy feet'
p496
aS'hard rain'
p497
aS'harry potter and the chamber of secrets'
p498
aS'harry potter and the deathly hallows: part ii'
p499
aS'harry potter and the deathly hallows: part i'
p500
aS'harry potter and the goblet of fire'
p501
aS'harry potter and the half-blood prince'
p502
aS'harry potter and the order of the phoenix'
p503
aS'harry potter and the prisoner of azkaban'
p504
aS'harry potter and the sorcerers stone'
p505
aS'harts war'
p506
aS'heavens gate'
p507
aS'hellboy ii: the golden army'
p508
aS'hellboy'
p509
aS'herbie fully loaded'
p510
aS'hercules'
p511
aS'here comes the boom'
p512
aS'hereafter'
p513
aS'hero'
p514
aS'hes just not that into you'
p515
aS'hidalgo'
p516
aS'high crimes'
p517
aS'hitch'
p518
aS'hollow man'
p519
aS'hollywood homicide'
p520
aS'holy man'
p521
aS'home on the range'
p522
aS'home'
p523
aS'hook'
p524
aS'hop'
p525
aS'hostage'
p526
aS'hotel for dogs'
p527
aS'hotel transylvania 2'
p528
aS'hotel transylvania'
p529
aS'how do you know'
p530
aS'how the grinch stole christmas'
p531
aS'how to lose a guy in 10 days'
p532
aS'how to train your dragon 2'
p533
aS'how to train your dragon'
p534
aS'hudson hawk'
p535
aS'hugo'
p536
aS'hulk'
p537
aS'i am legend'
p538
aS'i am number four'
p539
aS'i spy'
p540
aS'i, frankenstein'
p541
aS'i, robot'
p542
aS'ice age: continental drift'
p543
aS'ice age: dawn of the dinosaurs'
p544
aS'ice age: the meltdown'
p545
aS'ice age'
p546
aS'imagine that'
p547
aS'immortals'
p548
aS'in the heart of the sea'
p549
aS'in the name of the king: a dungeon siege tale'
p550
aS'inception'
p551
aS'inchon'
p552
aS'independence day: resurgence'
p553
aS'independence day'
p554
aS'indiana jones and the kingdom of the crystal skull'
p555
aS'indiana jones and the last crusade'
p556
aS'inglourious basterds'
p557
aS'inkheart'
p558
aS'inside man'
p559
aS'inside out'
p560
aS'insomnia'
p561
aS'inspector gadget'
p562
aS'instinct'
p563
aS'insurgent'
p564
aS'interstellar'
p565
aS'interview with the vampire: the vampire chronicles'
p566
aS'into the blue'
p567
aS'into the storm'
p568
aS'into the woods'
p569
aS'intolerable cruelty'
p570
aS'invictus'
p571
aS'iron man 2'
p572
aS'iron man 3'
p573
aS'iron man'
p574
aS'its complicated'
p575
aS'jack and jill'
p576
aS'jack reacher'
p577
aS'jack ryan: shadow recruit'
p578
aS'jack the giant slayer'
p579
aS'jade'
p580
aS'jarhead'
p581
aS'jason bourne'
p582
aS'jerry maguire'
p583
aS'jingle all the way'
p584
aS'john carter'
p585
aS'johnny english reborn'
p586
aS'johnny english'
p587
aS'jonah hex'
p588
aS'journey 2: the mysterious island'
p589
aS'journey to the center of the earth'
p590
aS'joy'
p591
aS'julie & julia'
p592
aS'jumper'
p593
aS'jupiter ascending'
p594
aS'jurassic park iii'
p595
aS'jurassic park'
p596
aS'jurassic world'
p597
aS'just go with it'
p598
aS'just like heaven'
p599
aS'k-19: the widowmaker'
p600
aS'k-pax'
p601
aS'kangaroo jack'
p602
aS'kate & leopold'
p603
aS'kicking & screaming'
p604
aS'kill bill: vol. 1'
p605
aS'kill bill: vol. 2'
p606
aS'killer elite'
p607
aS'killers'
p608
aS'king kong'
p609
aS'kingdom of heaven'
p610
aS'knight and day'
p611
aS'knowing'
p612
aS'kung fu panda 2'
p613
aS'kung fu panda 3'
p614
aS'kung fu panda'
p615
aS'ladder 49'
p616
aS'lady in the water'
p617
aS'land of the lost'
p618
aS'lara croft tomb raider: the cradle of life'
p619
aS'lara croft: tomb raider'
p620
aS'last action hero'
p621
aS'last holiday'
p622
aS'last man standing\xa0           '
p623
aS'law abiding citizen'
p624
aS'leatherheads'
p625
aS'legend of the guardians: the owls of gahoole'
p626
aS'legends of oz: dorothys return'
p627
aS'les mis\xe9rables'
p628
aS'lethal weapon 4'
p629
aS'liar liar'
p630
aS'licence to kill'
p631
aS'life of pi'
p632
aS'life\xa0           '
p633
aS'lilo & stitch'
p634
aS'lincoln'
p635
aS'little fockers'
p636
aS'little nicky'
p637
aS'littleman'
p638
aS'live free or die hard'
p639
aS'lolita'
p640
aS'london has fallen'
p641
aS'lone survivor'
p642
aS'looney tunes: back in action'
p643
aS'lord of war'
p644
aS'lost in space'
p645
aS'love actually'
p646
aS'love in the time of cholera'
p647
aS'lucky numbers'
p648
aS'lucky you'
p649
aS'lucy'
p650
aS'mad city'
p651
aS'mad max: fury road'
p652
aS'madagascar 3: europes most wanted'
p653
aS'madagascar: escape 2 africa'
p654
aS'madagascar'
p655
aS'maid in manhattan'
p656
aS'maleficent'
p657
aS'mamma mia!'
p658
aS'man of steel'
p659
aS'man of the house'
p660
aS'man on a ledge'
p661
aS'man on fire'
p662
aS'man on the moon'
p663
aS'marley & me'
p664
aS'marmaduke'
p665
aS'mars attacks!'
p666
aS'mars needs moms'
p667
aS'mary reilly'
p668
aS'master and commander: the far side of the world'
p669
aS'mchales navy\xa0           '
p670
aS'me, myself & irene'
p671
aS'meet dave'
p672
aS'meet joe black'
p673
aS'meet the fockers'
p674
aS'meet the parents'
p675
aS'megamind'
p676
aS'memoirs of a geisha'
p677
aS'men in black 3'
p678
aS'men in black ii'
p679
aS'men in black'
p680
aS'mercury rising'
p681
aS'miami vice\xa0           '
p682
aS'micmacs'
p683
aS'mighty joe young'
p684
aS'minions'
p685
aS'minority report'
p686
aS'miracle at st. anna'
p687
aS'mirror mirror'
p688
aS'miss congeniality 2: armed and fabulous'
p689
aS'miss congeniality'
p690
aS'mission to mars'
p691
aS'mission: impossible - ghost protocol'
p692
aS'mission: impossible - rogue nation'
p693
aS'mission: impossible iii'
p694
aS'mission: impossible ii'
p695
aS'mission: impossible'
p696
aS'mona lisa smile'
p697
aS'money train'
p698
aS'moneyball'
p699
aS'monkeybone'
p700
aS'monster house'
p701
aS'monster-in-law'
p702
aS'monsters university'
p703
aS'monsters vs. aliens'
p704
aS'monsters, inc.'
p705
aS'mortdecai'
p706
aS'moulin rouge!'
p707
aS'mr. & mrs. smith'
p708
aS'mr. deeds'
p709
aS'mr. peabody & sherman'
p710
aS'mr. poppers penguins'
p711
aS'mulan'
p712
aS'multiplicity'
p713
aS'munich'
p714
aS'muppets most wanted'
p715
aS'murder by numbers'
p716
aS'my best friends wedding'
p717
aS'my favorite martian'
p718
aS'mystery men'
p719
aS'national treasure'
p720
aS'need for speed'
p721
aS'night at the museum: battle of the smithsonian'
p722
aS'night at the museum: secret of the tomb'
p723
aS'night at the museum'
p724
aS'nine'
p725
aS'ninja assassin'
p726
aS'nixon'
p727
aS'noah'
p728
aS'non-stop'
p729
aS'notting hill'
p730
aS'now you see me 2'
p731
aS'now you see me'
p732
aS'nutty professor ii: the klumps'
p733
aS'oblivion'
p734
aS'oceans eleven'
p735
aS'oceans thirteen'
p736
aS'oceans twelve'
p737
aS'oceans'
p738
aS'oliver twist'
p739
aS'olympus has fallen'
p740
aS'on deadly ground'
p741
aS'one for the money'
p742
aS'open season'
p743
aS'osmosis jones'
p744
aS'out of sight'
p745
aS'out of time'
p746
aS'outbreak'
p747
aS'outlander\xa0           '
p748
aS'over the hedge'
p749
aS'oz the great and powerful'
p750
aS'pacific rim'
p751
aS'paddington'
p752
aS'panic room'
p753
aS'pan'
p754
aS'paranorman'
p755
aS'patch adams'
p756
aS'patriot games'
p757
aS'payback'
p758
aS'paycheck'
p759
aS'pearl harbor'
p760
aS'penguins of madagascar'
p761
aS'percy jackson & the olympians: the lightning thief'
p762
aS'percy jackson: sea of monsters'
p763
aS'perfume: the story of a murderer'
p764
aS'pinocchio'
p765
aS'pirate radio'
p766
aS'pirates of the caribbean: at worlds end'
p767
aS'pirates of the caribbean: dead mans chest'
p768
aS'pirates of the caribbean: on stranger tides'
p769
aS'pirates of the caribbean: the curse of the black pearl'
p770
aS'pixels'
p771
aS'planet 51'
p772
aS'planet of the apes'
p773
aS'pocahontas'
p774
aS'point break'
p775
aS'pompeii'
p776
aS'poseidon'
p777
aS'practical magic'
p778
aS'priest'
p779
aS'primary colors'
p780
aS'prince of persia: the sands of time'
p781
aS'prisoners'
p782
aS'prometheus'
p783
aS'proof of life'
p784
aS'public enemies'
p785
aS'puss in boots'
p786
aS'quantum of solace'
p787
aS'r.i.p.d.'
p788
aS'race to witch mountain'
p789
aS'raising helen'
p790
aS'rambo iii'
p791
aS'rambo: first blood part ii'
p792
aS'random hearts'
p793
aS'rango'
p794
aS'ransom'
p795
aS'rat race'
p796
aS'ratatouille'
p797
aS'real steel'
p798
aS'red 2'
p799
aS'red dawn'
p800
aS'red dragon'
p801
aS'red planet'
p802
aS'red riding hood'
p803
aS'red tails'
p804
aS'red'
p805
aS'reign of fire'
p806
aS'resident evil: afterlife'
p807
aS'resident evil: apocalypse'
p808
aS'resident evil: extinction'
p809
aS'resident evil: retribution'
p810
aS'revolutionary road'
p811
aS'riding in cars with boys'
p812
aS'righteous kill'
p813
aS'rio 2'
p814
aS'rio'
p815
aS'rise of the guardians'
p816
aS'rise of the planet of the apes'
p817
aS'road to perdition'
p818
aS'robin hood: prince of thieves'
p819
aS'robin hood'
p820
aS'robocop'
p821
aS'robots'
p822
aS'rock of ages'
p823
aS'rollerball'
p824
aS'ronin'
p825
aS'rules of engagement\xa0           '
p826
aS'run all night'
p827
aS'runaway bride'
p828
aS'rush hour 2'
p829
aS'rush hour 3'
p830
aS's.w.a.t.'
p831
aS'sabrina, the teenage witch\xa0           '
p832
aS'safe house'
p833
aS'sahara'
p834
aS'salt'
p835
aS'san andreas'
p836
aS'savages'
p837
aS'saving private ryan'
p838
aS'scary movie 2'
p839
aS'scary movie 3'
p840
aS'scary movie 4'
p841
aS'scooby-doo'
p842
aS'scott pilgrim vs. the world'
p843
aS'scream 3'
p844
aS'seabiscuit'
p845
aS'semi-pro'
p846
aS'seven pounds'
p847
aS'seven years in tibet'
p848
aS'seventh son'
p849
aS'sex and the city 2'
p850
aS'sex and the city\xa0           '
p851
aS'shadow conspiracy'
p852
aS'shaft'
p853
aS'shanghai knights'
p854
aS'shanghai noon'
p855
aS'shark tale'
p856
aS'sherlock holmes: a game of shadows'
p857
aS'sherlock holmes'
p858
aS'shooter'
p859
aS'shrek 2'
p860
aS'shrek forever after'
p861
aS'shrek the third'
p862
aS'shrek'
p863
aS'shutter island'
p864
aS'signs'
p865
aS'silent hill'
p866
aS'sin city: a dame to kill for'
p867
aS'sinbad: legend of the seven seas'
p868
aS'six days seven nights'
p869
aS'sky captain and the world of tomorrow'
p870
aS'skyfall'
p871
aS'sleepers'
p872
aS'sleepy hollow\xa0           '
p873
aS'snake eyes'
p874
aS'snow white and the huntsman'
p875
aS'solaris'
p876
aS'soldier'
p877
aS'somethings gotta give'
p878
aS'son of the mask'
p879
aS'space cowboys'
p880
aS'space jam'
p881
aS'spanglish'
p882
aS'spectre'
p883
aS'speed 2: cruise control'
p884
aS'speed racer'
p885
aS'sphere'
p886
aS'spider-man 2'
p887
aS'spider-man 3'
p888
aS'spider-man'
p889
aS'spirit: stallion of the cimarron'
p890
aS'spy game'
p891
aS'spy kids 3-d: game over'
p892
aS'star trek beyond'
p893
aS'star trek into darkness'
p894
aS'star trek: first contact'
p895
aS'star trek: insurrection'
p896
aS'star trek: nemesis'
p897
aS'star trek'
p898
aS'star wars: episode i - the phantom menace'
p899
aS'star wars: episode ii - attack of the clones'
p900
aS'star wars: episode iii - revenge of the sith'
p901
aS'stardust'
p902
aS'stargate sg-1\xa0           '
p903
aS'starship troopers'
p904
aS'starsky & hutch'
p905
aS'state of play'
p906
aS'stealth'
p907
aS'step brothers'
p908
aS'stepmom'
p909
aS'street fighter: the legend of chun-li'
p910
aS'striptease'
p911
aS'stuart little 2'
p912
aS'stuart little'
p913
aS'stuck on you'
p914
aS'sucker punch'
p915
aS'suicide squad'
p916
aS'super 8'
p917
aS'super mario bros.'
p918
aS'superman ii'
p919
aS'superman returns'
p920
aS'superman'
p921
aS'supernova'
p922
aS'surfs up'
p923
aS'surrogates'
p924
aS'swordfish'
p925
aS'syriana'
p926
aS'taken 2'
p927
aS'taken 3'
p928
aS'talladega nights: the ballad of ricky bobby'
p929
aS'tangled'
p930
aS'tango & cash'
p931
aS'tears of the sun'
p932
aS'ted 2'
p933
aS'ted'
p934
aS'teenage mutant ninja turtles: out of the shadows'
p935
aS'teenage mutant ninja turtles'
p936
aS'terminator 2: judgment day'
p937
aS'terminator 3: rise of the machines'
p938
aS'terminator genisys'
p939
aS'terminator salvation'
p940
aS'thats my boy'
p941
aS'the 13th warrior'
p942
aS'the 6th day'
p943
aS'the a-team\xa0           '
p944
aS'the abyss'
p945
aS'the adjustment bureau'
p946
aS'the adventures of ford fairlane'
p947
aS'the adventures of pluto nash'
p948
aS'the adventures of rocky & bullwinkle'
p949
aS'the adventures of sharkboy and lavagirl 3-d'
p950
aS'the adventures of tintin'
p951
aS'the alamo'
p952
aS'the amazing spider-man 2'
p953
aS'the amazing spider-man'
p954
aS'the american president'
p955
aS'the angry birds movie'
p956
aS'the ant bully'
p957
aS'the avengers'
p958
aS'the aviator'
p959
aS'the beach'
p960
aS'the bfg'
p961
aS'the big bounce'
p962
aS'the big year'
p963
aS'the black dahlia'
p964
aS'the bone collector'
p965
aS'the book of eli'
p966
aS'the book of life'
p967
aS'the bounty hunter'
p968
aS'the bourne identity'
p969
aS'the bourne legacy'
p970
aS'the bourne supremacy'
p971
aS'the bourne ultimatum'
p972
aS'the boxtrolls'
p973
aS'the break-up'
p974
aS'the brothers grimm'
p975
aS'the bucket list'
p976
aS'the cable guy'
p977
aS'the campaign'
p978
aS'the cat in the hat'
p979
aS'the change-up'
p980
aS'the chronicles of narnia: prince caspian'
p981
aS'the chronicles of narnia: the lion, the witch and the wardrobe'
p982
aS'the chronicles of narnia: the voyage of the dawn treader'
p983
aS'the chronicles of riddick'
p984
aS'the client'
p985
aS'the conjuring 2'
p986
aS'the core'
p987
aS'the cotton club'
p988
aS'the croods'
p989
aS'the curious case of benjamin button'
p990
aS'the da vinci code'
p991
aS'the dark knight rises'
p992
aS'the dark knight'
p993
aS'the day after tomorrow'
p994
aS'the day the earth stood still'
p995
aS'the departed'
p996
aS'the devils advocate'
p997
aS'the devils own'
p998
aS'the dictator'
p999
aS'the dilemma'
p1000
aS'the dukes of hazzard'
p1001
aS'the edge'
p1002
aS'the emperors new groove'
p1003
aS'the equalizer'
p1004
aS'the expendables 2'
p1005
aS'the expendables 3'
p1006
aS'the expendables'
p1007
aS'the family man'
p1008
aS'the fan'
p1009
aS'the fast and the furious: tokyo drift'
p1010
aS'the fast and the furious'
p1011
aS'the fifth element'
p1012
aS'the finest hours'
p1013
aS'the firm'
p1014
aS'the flintstones in viva rock vegas'
p1015
aS'the flintstones'
p1016
aS'the flowers of war'
p1017
aS'the forbidden kingdom'
p1018
aS'the fugitive'
p1019
aS'the game'
p1020
aS'the generals daughter'
p1021
aS'the ghost and the darkness'
p1022
aS'the ghost writer'
p1023
aS'the girl with the dragon tattoo'
p1024
aS'the glimmer man'
p1025
aS'the godfather: part iii'
p1026
aS'the golden compass'
p1027
aS'the good dinosaur'
p1028
aS'the great gatsby'
p1029
aS'the great raid'
p1030
aS'the green hornet'
p1031
aS'the green mile'
p1032
aS'the hangover part ii'
p1033
aS'the happening'
p1034
aS'the hateful eight'
p1035
aS'the haunted mansion'
p1036
aS'the haunting'
p1037
aS'the heat'
p1038
aS'the hitchhikers guide to the galaxy'
p1039
aS'the hobbit: an unexpected journey'
p1040
aS'the hobbit: the battle of the five armies'
p1041
aS'the hobbit: the desolation of smaug'
p1042
aS'the holiday'
p1043
aS'the horse whisperer'
p1044
aS'the host'
p1045
aS'the hunchback of notre dame'
p1046
aS'the hunger games: catching fire'
p1047
aS'the hunger games: mockingjay - part 1'
p1048
aS'the hunger games: mockingjay - part 2'
p1049
aS'the hunger games'
p1050
aS'the hunted'
p1051
aS'the huntsman: winters war'
p1052
aS'the incredible hulk'
p1053
aS'the incredibles'
p1054
aS'the indian in the cupboard'
p1055
aS'the infiltrator'
p1056
aS'the insider'
p1057
aS'the international'
p1058
aS'the internship'
p1059
aS'the intern'
p1060
aS'the interpreter'
p1061
aS'the interview'
p1062
aS'the invasion'
p1063
aS'the iron giant'
p1064
aS'the island'
p1065
aS'the italian job'
p1066
aS'the jackal'
p1067
aS'the judge'
p1068
aS'the jungle book'
p1069
aS'the juror'
p1070
aS'the karate kid'
p1071
aS'the kid'
p1072
aS'the kingdom'
p1073
aS'the last airbender'
p1074
aS'the last castle'
p1075
aS'the last legion'
p1076
aS'the last samurai'
p1077
aS'the last witch hunter'
p1078
aS'the league of extraordinary gentlemen'
p1079
aS'the legend of bagger vance'
p1080
aS'the legend of hercules'
p1081
aS'the legend of tarzan'
p1082
aS'the legend of zorro'
p1083
aS'the lego movie'
p1084
aS'the life aquatic with steve zissou'
p1085
aS'the life of david gale'
p1086
aS'the lion king'
p1087
aS'the little prince'
p1088
aS'the lone ranger'
p1089
aS'the long kiss goodnight'
p1090
aS'the longest yard'
p1091
aS'the lord of the rings: the fellowship of the ring'
p1092
aS'the lord of the rings: the return of the king'
p1093
aS'the lord of the rings: the two towers'
p1094
aS'the lost world: jurassic park'
p1095
aS'the love guru'
p1096
aS'the lovely bones'
p1097
aS'the lovers'
p1098
aS'the majestic'
p1099
aS'the man from u.n.c.l.e.'
p1100
aS'the manchurian candidate'
p1101
aS'the martian'
p1102
aS'the mask of zorro'
p1103
aS'the matrix reloaded'
p1104
aS'the matrix revolutions'
p1105
aS'the matrix'
p1106
aS'the mechanic'
p1107
aS'the medallion'
p1108
aS'the messenger: the story of joan of arc'
p1109
aS'the mirror has two faces'
p1110
aS'the missing\xa0           '
p1111
aS'the monuments men'
p1112
aS'the mortal instruments: city of bones'
p1113
aS'the mothman prophecies'
p1114
aS'the mummy returns'
p1115
aS'the mummy: tomb of the dragon emperor'
p1116
aS'the muppets'
p1117
aS'the negotiator'
p1118
aS'the nutcracker in 3d'
p1119
aS'the nutty professor'
p1120
aS'the one'
p1121
aS'the other guys'
p1122
aS'the pacifier'
p1123
aS'the patriot'
p1124
aS'the peacemaker'
p1125
aS'the peanuts movie'
p1126
aS'the pelican brief'
p1127
aS'the perfect storm'
p1128
aS'the phantom of the opera'
p1129
aS'the phantom'
p1130
aS'the pink panther'
p1131
aS'the pirates! band of misfits'
p1132
aS'the pledge'
p1133
aS'the polar express'
p1134
aS'the postman'
p1135
aS'the prince of egypt'
p1136
aS'the princess and the frog'
p1137
aS'the princess diaries 2: royal engagement'
p1138
aS'the producers'
p1139
aS'the proposal'
p1140
aS'the pursuit of happyness'
p1141
aS'the relic'
p1142
aS'the replacements'
p1143
aS'the returned\xa0           '
p1144
aS'the revenant'
p1145
aS'the ridiculous 6'
p1146
aS'the ring two'
p1147
aS'the river wild'
p1148
aS'the road to el dorado'
p1149
aS'the rock'
p1150
aS'the rundown'
p1151
aS'the saint'
p1152
aS'the santa clause 2'
p1153
aS'the scarlet letter'
p1154
aS'the scorch trials'
p1155
aS'the score'
p1156
aS'the scorpion king'
p1157
aS'the secret life of pets'
p1158
aS'the secret life of walter mitty'
p1159
aS'the sentinel'
p1160
aS'the shaggy dog'
p1161
aS'the siege'
p1162
aS'the simpsons movie'
p1163
aS'the sixth sense'
p1164
aS'the smurfs 2'
p1165
aS'the smurfs'
p1166
aS'the social network'
p1167
aS'the soloist'
p1168
aS'the sorcerers apprentice'
p1169
aS'the spanish prisoner'
p1170
aS'the specialist'
p1171
aS'the spiderwick chronicles'
p1172
aS'the spirit'
p1173
aS'the spongebob movie: sponge out of water'
p1174
aS'the stepford wives'
p1175
aS'the story of us'
p1176
aS'the sum of all fears'
p1177
aS'the sweetest thing'
p1178
aS'the taking of pelham 1 2 3'
p1179
aS'the tale of despereaux'
p1180
aS'the talented mr. ripley'
p1181
aS'the terminal'
p1182
aS'the thin red line'
p1183
aS'the thomas crown affair'
p1184
aS'the three musketeers'
p1185
aS'the time machine'
p1186
aS'the tooth fairy'
p1187
aS'the tourist'
p1188
aS'the truman show'
p1189
aS'the tuxedo'
p1190
aS'the twilight saga: breaking dawn - part 2'
p1191
aS'the twilight saga: eclipse'
p1192
aS'the twilight saga: new moon'
p1193
aS'the village'
p1194
aS'the warriors way'
p1195
aS'the watch'
p1196
aS'the wolf of wall street'
p1197
aS'the wolfman'
p1198
aS'the wolverine'
p1199
aS'the world is not enough'
p1200
aS'the x files'
p1201
aS'thirteen days'
p1202
aS'this is it'
p1203
aS'this means war'
p1204
aS'thor: the dark world'
p1205
aS'thor'
p1206
aS'three kings'
p1207
aS'thunderbirds'
p1208
aS'timeline'
p1209
aS'tin cup'
p1210
aS'titan a.e.'
p1211
aS'titanic'
p1212
aS'tomorrow never dies'
p1213
aS'tomorrowland'
p1214
aS'top cat begins'
p1215
aS'total recall'
p1216
aS'tower heist'
p1217
aS'town & country'
p1218
aS'toy story 2'
p1219
aS'toy story 3'
p1220
aS'traffic'
p1221
aS'training day'
p1222
aS'transcendence'
p1223
aS'transformers: age of extinction'
p1224
aS'transformers: dark of the moon'
p1225
aS'transformers: revenge of the fallen'
p1226
aS'transformers'
p1227
aS'treasure planet'
p1228
aS'tron: legacy'
p1229
aS'tropic thunder'
p1230
aS'trouble with the curve'
p1231
aS'troy'
p1232
aS'true lies'
p1233
aS'turbo'
p1234
aS'turbulence'
p1235
aS'twisted\xa0           '
p1236
aS'twister'
p1237
aS'two brothers'
p1238
aS'two weeks notice'
p1239
aS'u-571'
p1240
aS'unbreakable'
p1241
aS'unbroken'
p1242
aS'under siege 2: dark territory'
p1243
aS'underworld: awakening'
p1244
aS'underworld: evolution'
p1245
aS'unfaithful'
p1246
aS'unforgotten\xa0           '
p1247
aS'unleashed'
p1248
aS'unstoppable'
p1249
aS'up close & personal'
p1250
aS'up'
p1251
aS'v for vendetta'
p1252
aS'valentines day'
p1253
aS'valkyrie'
p1254
aS'vanilla sky'
p1255
aS'vertical limit'
p1256
aS'victor frankenstein'
p1257
aS'volcano'
p1258
aS'walking tall'
p1259
aS'walking with dinosaurs 3d'
p1260
aS'wall street: money never sleeps'
p1261
aS'wall\xb7e'
p1262
aS'wanted'
p1263
aS'war horse'
p1264
aS'war of the worlds'
p1265
aS'warcraft'
p1266
aS'watchmen'
p1267
aS'waterworld'
p1268
aS'we are marshall'
p1269
aS'we bought a zoo'
p1270
aS'we were soldiers'
p1271
aS'what dreams may come'
p1272
aS'what lies beneath'
p1273
aS'what planet are you from?'
p1274
aS'what women want'
p1275
aS'where the wild things are'
p1276
aS'white house down'
p1277
aS'wild hogs'
p1278
aS'wild wild west'
p1279
aS'windtalkers'
p1280
aS'winters tale'
p1281
aS'wolf'
p1282
aS'world trade center'
p1283
aS'world war z'
p1284
aS'wrath of the titans'
p1285
aS'wreck-it ralph'
p1286
aS'wyatt earp'
p1287
aS'x-men 2'
p1288
aS'x-men origins: wolverine'
p1289
aS'x-men: apocalypse'
p1290
aS'x-men: days of future past'
p1291
aS'x-men: first class'
p1292
aS'x-men: the last stand'
p1293
aS'x-men'
p1294
aS'xi you ji zhi: sun wukong san da baigu jing'
p1295
aS'xxx: state of the union'
p1296
aS'xxx'
p1297
aS'year one'
p1298
aS'yes man'
p1299
aS'yogi bear'
p1300
aS'you dont mess with the zohan'
p1301
aS'you, me and dupree'
p1302
aS'your highness'
p1303
aS'yours, mine and ours'
p1304
aS'youve got mail'
p1305
aS'zathura: a space adventure'
p1306
aS'zero dark thirty'
p1307
aS'zodiac'
p1308
aS'zookeeper'
p1309
aS'zoolander 2'
p1310
aS'\xc6on flux'
p1311
as(g59
g32
tp1312
(lp1313
S'action'
p1314
aS'horror'
p1315
aS'drama'
p1316
aS'sci-fi'
p1317
aS'western'
p1318
aS'comedy'
p1319
aS'thriller'
p1320
aS'crime'
p1321
aS'mystery'
p1322
asa(dp1323
(g59
g29
tp1324
(lp1325
Vcolor
p1326
as(g59
g38
tp1327
(lp1328
Vlanguage
p1329
as(g59
g41
tp1330
(lp1331
Vcountry
p1332
aVlocation
p1333
as(g59
g6
(Vactor_1_name
p1334
Ntp1335
Rp1336
tp1337
(lp1338
Vactor
p1339
aVname
p1340
aVact
p1341
as(g59
g18
tp1342
(lp1343
Vreview
p1344
aVnumber
p1345
as(g59
g44
tp1346
(lp1347
Vrating
p1348
aVpg13
p1349
aVr
p1350
as(g59
g15
tp1351
(lp1352
Vgross
p1353
aVearn
p1354
aVmoney
p1355
as(g59
g35
tp1356
(lp1357
Vmovie
p1358
aVname
p1359
as(g59
g32
tp1360
(lp1361
Vgenre
p1362
as(g59
g54
tp1363
(lp1364
Vscore
p1365
aVrating
p1366
as(g59
g12
tp1367
(lp1368
Vduration
p1369
aVlength
p1370
aVlong
p1371
as(g59
g9
tp1372
(lp1373
Vreview
p1374
aVnumber
p1375
as(g59
g57
tp1376
(lp1377
Vaspect
p1378
aVratio
p1379
as(g59
g21
tp1380
(lp1381
Vbudget
p1382
as(g59
g24
tp1383
(lp1384
Vyear
p1385
aVdate
p1386
as(g59
g6
(Vmovie_imdb_link
p1387
Ntp1388
Rp1389
tp1390
(lp1391
Vimdb
p1392
aVlink
p1393
aVurl
p1394
as(g59
g6
(Vdirector_name
p1395
Ntp1396
Rp1397
tp1398
(lp1399
Vdirector
p1400
aVname
p1401
aVdirect
p1402
asa(lp1403
S'movie film'
p1404
aa.