(lp0
(dp1
S'DATE'
p2
(lp3
csqlalchemy.sql.elements
quoted_name
p4
(Vdob
p5
Ntp6
Rp7
ag4
(Vact_date
p8
Ntp9
Rp10
asS'INTEGER'
p11
(lp12
sS'ENUM'
p13
(lp14
g4
(Vstate
p15
Ntp16
Rp17
ag4
(Vprod_name
p18
Ntp19
Rp20
asS'STRING'
p21
(lp22
g4
(Vfirst_name
p23
Ntp24
Rp25
ag4
(Vlast_name
p26
Ntp27
Rp28
asS'FLOAT'
p29
(lp30
sa(dp31
(S'transaction_info'
p32
g20
tp33
(lp34
S'Auto Insurance'
p35
aS'Checking Account'
p36
aS'Credit Card'
p37
aS'Flood Insurance'
p38
aS'Home Insurance'
p39
aS'Life Insurance'
p40
aS'Rental Insurance'
p41
aS'Small Business Insurance'
p42
aS'Umbrella Insurance'
p43
as(g32
g4
(Vactivity
p44
Ntp45
Rp46
tp47
(lp48
S'view'
p49
aS'inquire'
p50
aS'purchase'
p51
aS'renew'
p52
aS'reactivate'
p53
as(g32
g17
tp54
(lp55
S'minnesota'
p56
aS'maine'
p57
aS'california'
p58
aS'colorado'
p59
aS'washington'
p60
aS'new york'
p61
aS'texas'
p62
aS'florida'
p63
aS'alabama'
p64
aS'vermont'
p65
aS'massachusetts'
p66
as(g32
g4
(Vmarketing
p67
Ntp68
Rp69
tp70
(lp71
S'texting'
p72
aS'email'
p73
aS'search'
p74
aS'social'
p75
asa(dp76
(g32
g28
tp77
(lp78
S'last'
p79
aS'name'
p80
aS'family'
p81
as(g32
g17
tp82
(lp83
S'state'
p84
aS'location'
p85
as(g32
g20
tp86
(lp87
S'product'
p88
as(g32
g10
tp89
(lp90
S'activity'
p91
aS'date'
p92
aS'buy'
p93
as(g32
g7
tp94
(lp95
S'date'
p96
aS'of'
p97
aS'birth'
p98
as(g32
g46
tp99
(lp100
S'activity'
p101
aS'purchase'
p102
aS'buy'
p103
as(g32
g25
tp104
(lp105
S'first'
p106
aS'name'
p107
as(g32
g69
tp108
(lp109
S'marketing'
p110
asa(lp111
S'transaction'
p112
aS'request'
p113
aa.